target datalayout = "e-m:e-p270:32:32-p271:32:32-p272:64:64-i64:64-i128:128-f80:128-n8:16:32:64-S128"
target triple = "x86_64-pc-linux-gnu"

%class.RarTime = type { i64 }
%class.Archive = type <{ %class.File, %class.CryptData, %class.ComprDataIO, i8, [7 x i8], ptr, %class.RarTime, i32, i32, i8, [7 x i8], %class.QuickOpen, i8, [3 x i8], %struct.BaseBlock, %struct.MarkHeader, [4 x i8], %struct.MainHeader, %struct.CryptHeader, [4 x i8], %struct.FileHeader, %struct.EndArcHeader, %struct.SubBlockHeader, [4 x i8], %struct.FileHeader, %struct.CommentHeader, %struct.ProtectHeader, %struct.EAHeader, %struct.StreamHeader, [4 x i8], i64, i64, i32, i8, i8, i8, i8, i8, i8, i8, i8, i8, [3 x i8], i64, i8, i8, [16 x i8], i8, i8, i32, i64, i64, i64, i8, [3 x i8], [2048 x i32], [4 x i8] }>
%class.File = type { ptr, i64, i8, i32, i8, i8, i32, i8, i8, i8, i8, i8, i64, i8, [2048 x i32], i32, ptr }
%class.CryptData = type { [4 x %"struct.CryptData::KDF3CacheItem"], i32, [4 x i8], [4 x %"struct.CryptData::KDF5CacheItem"], i32, i32, %class.Rijndael, [256 x i32], [256 x i8], [4 x i32], [3 x i8], [4 x i16], [4 x i8] }
%"struct.CryptData::KDF3CacheItem" = type { %class.SecPassword, [8 x i8], [16 x i8], [16 x i8], i8, [7 x i8] }
%class.SecPassword = type <{ %"class.std::vector", i8, [7 x i8] }>
%"class.std::vector" = type { %"struct.std::_Vector_base" }
%"struct.std::_Vector_base" = type { %"struct.std::_Vector_base<wchar_t, std::allocator<wchar_t>>::_Vector_impl" }
%"struct.std::_Vector_base<wchar_t, std::allocator<wchar_t>>::_Vector_impl" = type { %"struct.std::_Vector_base<wchar_t, std::allocator<wchar_t>>::_Vector_impl_data" }
%"struct.std::_Vector_base<wchar_t, std::allocator<wchar_t>>::_Vector_impl_data" = type { ptr, ptr, ptr }
%"struct.CryptData::KDF5CacheItem" = type { %class.SecPassword, [16 x i8], [32 x i8], i32, [32 x i8], [32 x i8], [4 x i8] }
%class.Rijndael = type { i8, i32, [16 x i8], [15 x [4 x [4 x i8]]] }
%class.ComprDataIO = type <{ i8, [7 x i8], i64, ptr, i8, [7 x i8], i64, ptr, i64, ptr, i64, i64, i8, i8, i8, i8, [4 x i8], ptr, ptr, ptr, ptr, ptr, ptr, ptr, i32, i32, i8, i8, i8, [5 x i8], i64, i64, i64, i64, i64, i64, i64, %class.DataHash, %class.DataHash, %class.DataHash, i8, i8, [6 x i8] }>
%class.DataHash = type { i32, i32, ptr }
%class.QuickOpen = type <{ ptr, i8, [7 x i8], ptr, ptr, ptr, i64, %class.CryptData, i8, [7 x i8], i64, i64, i64, i64, i64, i64, %class.Array.5, i64, i64, i8, [7 x i8] }>
%class.Array.5 = type { ptr, i64, i64, i64 }
%struct.BaseBlock = type { i32, i32, i32, i32, i8 }
%struct.MarkHeader = type { [8 x i8], i32 }
%struct.MainHeader = type { %struct.BaseBlock, i16, i32, i8, i8, i8, i64, i64, i64, i64, i64, %"class.std::__cxx11::basic_string", %class.RarTime }
%"class.std::__cxx11::basic_string" = type { %"struct.std::__cxx11::basic_string<wchar_t>::_Alloc_hider", i64, %union.anon }
%"struct.std::__cxx11::basic_string<wchar_t>::_Alloc_hider" = type { ptr }
%union.anon = type { i64, [8 x i8] }
%struct.CryptHeader = type { %struct.BaseBlock, i8, i32, [16 x i8], [8 x i8] }
%struct.EndArcHeader = type { %struct.BaseBlock, i32, i32, i8, i8, i8, i8 }
%struct.SubBlockHeader = type <{ %struct.BlockHeader, i16, i8, i8 }>
%struct.BlockHeader = type { %struct.BaseBlock, i32 }
%struct.FileHeader = type { %struct.BlockHeader, i8, i32, i8, %union.anon.6, [2048 x i32], %class.Array.5, %class.RarTime, %class.RarTime, %class.RarTime, i64, i64, i64, %struct.HashValue, i32, i8, i8, i8, i8, i32, i8, [16 x i8], [16 x i8], i8, [8 x i8], i8, [32 x i8], i32, i8, i8, i8, i8, i64, i8, i8, i8, i32, i32, [2048 x i32], i8, i8, i8, i8, [256 x i8], [256 x i8], i32, i32 }
%union.anon.6 = type { i32 }
%struct.HashValue = type { i32, %union.anon.7 }
%union.anon.7 = type { i32, [28 x i8] }
%struct.CommentHeader = type <{ %struct.BaseBlock, i16, i8, i8, i16, [2 x i8] }>
%struct.ProtectHeader = type { %struct.BlockHeader, i8, i16, i32, [8 x i8] }
%struct.EAHeader = type { %struct.SubBlockHeader.base, i32, i8, i8, i32 }
%struct.SubBlockHeader.base = type <{ %struct.BlockHeader, i16, i8 }>
%struct.StreamHeader = type <{ %struct.SubBlockHeader.base, i8, i32, i8, i8, [2 x i8], i32, i16, [260 x i8], [2 x i8] }>

; Function Attrs: inlinehint mustprogress nounwind uwtable
define linkonce_odr noundef i64 @_ZN5ArrayIhE4SizeEv(ptr noundef nonnull align 8 dereferenceable(32) %0) #4 comdat align 2 {
  %2 = alloca ptr, align 8
  store ptr %0, ptr %2, align 8, !tbaa !83
  %3 = load ptr, ptr %2, align 8
  %4 = getelementptr inbounds nuw %class.Array.5, ptr %3, i32 0, i32 1
  %5 = load i64, ptr %4, align 8, !tbaa !86
  ret i64 %5
}

; Function Attrs: inlinehint mustprogress nounwind uwtable
define linkonce_odr noundef nonnull align 1 dereferenceable(1) ptr @_ZNK5ArrayIhEixEm(ptr noundef nonnull align 8 dereferenceable(32) %0, i64 noundef %1) #4 comdat align 2 {
  %3 = alloca ptr, align 8
  %4 = alloca i64, align 8
  store ptr %0, ptr %3, align 8, !tbaa !83
  store i64 %1, ptr %4, align 8, !tbaa !10
  %5 = load ptr, ptr %3, align 8
  %6 = getelementptr inbounds nuw %class.Array.5, ptr %5, i32 0, i32 0
  %7 = load ptr, ptr %6, align 8, !tbaa !85
  %8 = load i64, ptr %4, align 8, !tbaa !10
  %9 = getelementptr inbounds nuw i8, ptr %7, i64 %8
  ret ptr %9
}

; Function Attrs: mustprogress uwtable
define void @_Z17GetStreamNameNTFSR7ArchivePwm(ptr noundef nonnull align 8 dereferenceable(57108) %0, ptr noundef %1, i64 noundef %2) #0 {
  %4 = alloca ptr, align 8
  %5 = alloca ptr, align 8
  %6 = alloca i64, align 8
  %7 = alloca ptr, align 8
  %8 = alloca i64, align 8
  %9 = alloca i64, align 8
  %10 = alloca [8192 x i8], align 16
  %11 = alloca i64, align 8
  store ptr %0, ptr %4, align 8, !tbaa !36
  store ptr %1, ptr %5, align 8, !tbaa !8
  store i64 %2, ptr %6, align 8, !tbaa !10
  call void @llvm.lifetime.start.p0(i64 8, ptr %7) #11
  %12 = load ptr, ptr %4, align 8, !tbaa !36
  %13 = getelementptr inbounds nuw %class.Archive, ptr %12, i32 0, i32 24
  %14 = getelementptr inbounds nuw %struct.FileHeader, ptr %13, i32 0, i32 6
  %15 = call noundef nonnull align 1 dereferenceable(1) ptr @_ZNK5ArrayIhEixEm(ptr noundef nonnull align 8 dereferenceable(32) %14, i64 noundef 0)
  store ptr %15, ptr %7, align 8, !tbaa !38
  call void @llvm.lifetime.start.p0(i64 8, ptr %8) #11
  %16 = load ptr, ptr %4, align 8, !tbaa !36
  %17 = getelementptr inbounds nuw %class.Archive, ptr %16, i32 0, i32 24
  %18 = getelementptr inbounds nuw %struct.FileHeader, ptr %17, i32 0, i32 6
  %19 = call noundef i64 @_ZN5ArrayIhE4SizeEv(ptr noundef nonnull align 8 dereferenceable(32) %18)
  store i64 %19, ptr %8, align 8, !tbaa !10
  %20 = load ptr, ptr %4, align 8, !tbaa !36
  %21 = getelementptr inbounds nuw %class.Archive, ptr %20, i32 0, i32 32
  %22 = load i32, ptr %21, align 8, !tbaa !40
  %23 = icmp eq i32 %22, 2
  br i1 %23, label %24, label %45

24:                                               ; preds = %3
  call void @llvm.lifetime.start.p0(i64 8, ptr %9) #11
  %25 = load i64, ptr %8, align 8, !tbaa !10
  %26 = udiv i64 %25, 2
  %27 = load i64, ptr %6, align 8, !tbaa !10
  %28 = sub i64 %27, 1
  %29 = icmp ult i64 %26, %28
  br i1 %29, label %30, label %33

30:                                               ; preds = %24
  %31 = load i64, ptr %8, align 8, !tbaa !10
  %32 = udiv i64 %31, 2
  br label %36

33:                                               ; preds = %24
  %34 = load i64, ptr %6, align 8, !tbaa !10
  %35 = sub i64 %34, 1
  br label %36

36:                                               ; preds = %33, %30
  %37 = phi i64 [ %32, %30 ], [ %35, %33 ]
  store i64 %37, ptr %9, align 8, !tbaa !10
  %38 = load ptr, ptr %7, align 8, !tbaa !38
  %39 = load ptr, ptr %5, align 8, !tbaa !8
  %40 = load i64, ptr %9, align 8, !tbaa !10
  %41 = call noundef ptr @_Z9RawToWidePKhPwm(ptr noundef %38, ptr noundef %39, i64 noundef %40)
  %42 = load ptr, ptr %5, align 8, !tbaa !8
  %43 = load i64, ptr %9, align 8, !tbaa !10
  %44 = getelementptr inbounds nuw i32, ptr %42, i64 %43
  store i32 0, ptr %44, align 4, !tbaa !81
  call void @llvm.lifetime.end.p0(i64 8, ptr %9) #11
  br label %62

45:                                               ; preds = %3
  call void @llvm.lifetime.start.p0(i64 8192, ptr %10) #11
  call void @llvm.lifetime.start.p0(i64 8, ptr %11) #11
  %46 = load i64, ptr %8, align 8, !tbaa !10
  %47 = icmp ult i64 %46, 8191
  br i1 %47, label %48, label %50

48:                                               ; preds = %45
  %49 = load i64, ptr %8, align 8, !tbaa !10
  br label %51

50:                                               ; preds = %45
  br label %51

51:                                               ; preds = %50, %48
  %52 = phi i64 [ %49, %48 ], [ 8191, %50 ]
  store i64 %52, ptr %11, align 8, !tbaa !10
  %53 = getelementptr inbounds [8192 x i8], ptr %10, i64 0, i64 0
  %54 = load ptr, ptr %7, align 8, !tbaa !38
  %55 = load i64, ptr %11, align 8, !tbaa !10
  call void @llvm.memcpy.p0.p0.i64(ptr align 16 %53, ptr align 1 %54, i64 %55, i1 false)
  %56 = load i64, ptr %11, align 8, !tbaa !10
  %57 = getelementptr inbounds nuw [8192 x i8], ptr %10, i64 0, i64 %56
  store i8 0, ptr %57, align 1, !tbaa !82
  %58 = getelementptr inbounds [8192 x i8], ptr %10, i64 0, i64 0
  %59 = load ptr, ptr %5, align 8, !tbaa !8
  %60 = load i64, ptr %6, align 8, !tbaa !10
  %61 = call noundef zeroext i1 @_Z9UtfToWidePKcPwm(ptr noundef %58, ptr noundef %59, i64 noundef %60)
  call void @llvm.lifetime.end.p0(i64 8, ptr %11) #11
  call void @llvm.lifetime.end.p0(i64 8192, ptr %10) #11
  br label %62

62:                                               ; preds = %51, %36
  call void @llvm.lifetime.end.p0(i64 8, ptr %8) #11
  call void @llvm.lifetime.end.p0(i64 8, ptr %7) #11
  ret void
}