; Function Attrs: mustprogress uwtable
define void @_Z17GetStreamNameNTFSR7ArchivePwm(ptr noundef nonnull readonly align 8 captures(none) dereferenceable(57108) %0, ptr noundef %1, i64 noundef %2) local_unnamed_addr #0 {
  %4 = alloca [8192 x i8], align 16
  %5 = getelementptr inbounds nuw i8, ptr %0, i64 39456
  %6 = load ptr, ptr %5, align 8, !tbaa !34
  %7 = getelementptr inbounds nuw i8, ptr %0, i64 39464
  %8 = load i64, ptr %7, align 8, !tbaa !37
  %9 = getelementptr inbounds nuw i8, ptr %0, i64 48840
  %10 = load i32, ptr %9, align 8, !tbaa !38
  %11 = icmp eq i32 %10, 2
  br i1 %11, label %12, label %18

12:                                               ; preds = %3
  %13 = lshr i64 %8, 1
  %14 = add i64 %2, -1
  %15 = tail call i64 @llvm.umin.i64(i64 %13, i64 %14)
  %16 = tail call noundef ptr @_Z9RawToWidePKhPwm(ptr noundef nonnull %6, ptr noundef %1, i64 noundef %15)
  %17 = getelementptr inbounds nuw i32, ptr %1, i64 %15
  store i32 0, ptr %17, align 4, !tbaa !80
  br label %22

18:                                               ; preds = %3
  call void @llvm.lifetime.start.p0(i64 8192, ptr nonnull %4) #13
  %19 = tail call i64 @llvm.umin.i64(i64 %8, i64 8191)
  call void @llvm.memcpy.p0.p0.i64(ptr nonnull align 16 %4, ptr nonnull align 1 %6, i64 %19, i1 false)
  %20 = getelementptr inbounds nuw [8192 x i8], ptr %4, i64 0, i64 %19
  store i8 0, ptr %20, align 1, !tbaa !81
  %21 = call noundef zeroext i1 @_Z9UtfToWidePKcPwm(ptr noundef nonnull %4, ptr noundef %1, i64 noundef %2)
  call void @llvm.lifetime.end.p0(i64 8192, ptr nonnull %4) #13
  br label %22

22:                                               ; preds = %18, %12
  ret void
}